; Function Attrs: mustprogress nounwind uwtable
define dso_local void @_ZNK4node9inspector8protocol5Value5cloneEv(ptr noalias nocapture writeonly sret(%"class.std::unique_ptr") align 8 %agg.result, ptr nocapture nonnull readnone align 8 %this) unnamed_addr #1 align 2 {
entry:
  tail call void @llvm.experimental.noalias.scope.decl(metadata !13)
  %call.i = tail call noalias noundef nonnull dereferenceable(16) ptr @_Znwm(i64 noundef 16) #30, !noalias !13
  store ptr getelementptr inbounds ({ [14 x ptr] }, ptr @_ZTVN4node9inspector8protocol5ValueE, i64 0, i32 0, i64 2), ptr %call.i, align 8, !noalias !13
  %m_type.i.i = getelementptr inbounds i8, ptr %call.i, i64 8
  store i32 0, ptr %m_type.i.i, align 8, !noalias !13
  store ptr %call.i, ptr %agg.result, align 8, !alias.scope !13
  ret void
}